target datalayout = "e-m:e-p270:32:32-p271:32:32-p272:64:64-i64:64-i128:128-f80:128-n8:16:32:64-S128"
target triple = "x86_64-unknown-linux-gnu"

%"class.OpenColorIO_v2_4dev::RangeTransformImpl" = type { %"class.OpenColorIO_v2_4dev::RangeTransform", i32, [4 x i8], %"class.OpenColorIO_v2_4dev::RangeOpData" }
%"class.OpenColorIO_v2_4dev::RangeTransform" = type { %"class.OpenColorIO_v2_4dev::Transform" }
%"class.OpenColorIO_v2_4dev::Transform" = type { ptr }
%"class.OpenColorIO_v2_4dev::RangeOpData" = type <{ %"class.OpenColorIO_v2_4dev::OpData", double, double, double, double, double, double, i32, i32, i32, [4 x i8] }>
%"class.OpenColorIO_v2_4dev::OpData" = type { ptr, %"class.std::mutex", %"class.OpenColorIO_v2_4dev::FormatMetadataImpl" }
%"class.std::mutex" = type { %"class.std::__mutex_base" }
%"class.std::__mutex_base" = type { %union.pthread_mutex_t }
%union.pthread_mutex_t = type { %struct.__pthread_mutex_s }
%struct.__pthread_mutex_s = type { i32, i32, i32, i32, i32, i16, i16, %struct.__pthread_internal_list }
%struct.__pthread_internal_list = type { ptr, ptr }
%"class.OpenColorIO_v2_4dev::FormatMetadataImpl" = type { %"class.OpenColorIO_v2_4dev::FormatMetadata", %"class.std::__cxx11::basic_string", %"class.std::__cxx11::basic_string", %"class.std::vector", %"class.std::vector.3" }
%"class.OpenColorIO_v2_4dev::FormatMetadata" = type { ptr }
%"class.std::__cxx11::basic_string" = type { %"struct.std::__cxx11::basic_string<char>::_Alloc_hider", i64, %union.anon }
%"struct.std::__cxx11::basic_string<char>::_Alloc_hider" = type { ptr }
%union.anon = type { i64, [8 x i8] }
%"class.std::vector" = type { %"struct.std::_Vector_base" }
%"struct.std::_Vector_base" = type { %"struct.std::_Vector_base<std::pair<std::__cxx11::basic_string<char>, std::__cxx11::basic_string<char>>, std::allocator<std::pair<std::__cxx11::basic_string<char>, std::__cxx11::basic_string<char>>>>::_Vector_impl" }
%"struct.std::_Vector_base<std::pair<std::__cxx11::basic_string<char>, std::__cxx11::basic_string<char>>, std::allocator<std::pair<std::__cxx11::basic_string<char>, std::__cxx11::basic_string<char>>>>::_Vector_impl" = type { %"struct.std::_Vector_base<std::pair<std::__cxx11::basic_string<char>, std::__cxx11::basic_string<char>>, std::allocator<std::pair<std::__cxx11::basic_string<char>, std::__cxx11::basic_string<char>>>>::_Vector_impl_data" }
%"struct.std::_Vector_base<std::pair<std::__cxx11::basic_string<char>, std::__cxx11::basic_string<char>>, std::allocator<std::pair<std::__cxx11::basic_string<char>, std::__cxx11::basic_string<char>>>>::_Vector_impl_data" = type { ptr, ptr, ptr }
%"class.std::vector.3" = type { %"struct.std::_Vector_base.4" }
%"struct.std::_Vector_base.4" = type { %"struct.std::_Vector_base<OpenColorIO_v2_4dev::FormatMetadataImpl, std::allocator<OpenColorIO_v2_4dev::FormatMetadataImpl>>::_Vector_impl" }
%"struct.std::_Vector_base<OpenColorIO_v2_4dev::FormatMetadataImpl, std::allocator<OpenColorIO_v2_4dev::FormatMetadataImpl>>::_Vector_impl" = type { %"struct.std::_Vector_base<OpenColorIO_v2_4dev::FormatMetadataImpl, std::allocator<OpenColorIO_v2_4dev::FormatMetadataImpl>>::_Vector_impl_data" }
%"struct.std::_Vector_base<OpenColorIO_v2_4dev::FormatMetadataImpl, std::allocator<OpenColorIO_v2_4dev::FormatMetadataImpl>>::_Vector_impl_data" = type { ptr, ptr, ptr }

; Function Attrs: mustprogress nounwind uwtable
define linkonce_odr hidden noundef nonnull align 8 dereferenceable(228) ptr @_ZN19OpenColorIO_v2_4dev18RangeTransformImpl4dataEv(ptr noundef nonnull align 8 dereferenceable(248) %this) #8 comdat align 2 {
entry:
  %this.addr = alloca ptr, align 8
  store ptr %this, ptr %this.addr, align 8
  %this1 = load ptr, ptr %this.addr, align 8
  %m_data = getelementptr inbounds %"class.OpenColorIO_v2_4dev::RangeTransformImpl", ptr %this1, i32 0, i32 3
  ret ptr %m_data
}

; Function Attrs: mustprogress nounwind uwtable
define hidden void @_ZN19OpenColorIO_v2_4dev18RangeTransformImpl16unsetMaxOutValueEv(ptr noundef nonnull align 8 dereferenceable(248) %this) unnamed_addr #8 align 2 personality ptr @__gxx_personality_v0 {
entry:
  %this.addr = alloca ptr, align 8
  store ptr %this, ptr %this.addr, align 8
  %this1 = load ptr, ptr %this.addr, align 8
  %call = call noundef nonnull align 8 dereferenceable(228) ptr @_ZN19OpenColorIO_v2_4dev18RangeTransformImpl4dataEv(ptr noundef nonnull align 8 dereferenceable(248) %this1) #3
  invoke void @_ZN19OpenColorIO_v2_4dev11RangeOpData16unsetMaxOutValueEv(ptr noundef nonnull align 8 dereferenceable(228) %call)
          to label %invoke.cont unwind label %terminate.lpad

invoke.cont:                                      ; preds = %entry
  ret void

terminate.lpad:                                   ; preds = %entry
  %0 = landingpad { ptr, i32 }
          catch ptr null
  %1 = extractvalue { ptr, i32 } %0, 0
  call void @__clang_call_terminate(ptr %1) #18
  unreachable
}